target datalayout = "e-m:e-p270:32:32-p271:32:32-p272:64:64-i64:64-i128:128-f80:128-n8:16:32:64-S128"
target triple = "x86_64-pc-linux-gnu"

%struct.H5HF_hdr_t = type { %struct.H5C_cache_entry_t, i32, i32, i8, i8, i8, i8, %struct.H5HF_dtable_t, i64, i64, i32, i64, i64, %struct.H5O_pline_t, i64, i32, i64, i64, i64, i64, i64, i64, i64, i64, i64, i64, i64, i32, ptr, i64, i8, i8, i8, ptr, i32, ptr, %struct.H5HF_block_iter_t, ptr, i64, i8, i8, i64, i8, i8, i8, i8 }
%struct.H5C_cache_entry_t = type { ptr, i64, i64, ptr, i8, ptr, i8, i8, i8, i8, i32, i8, i8, i8, i8, i8, i32, ptr, i32, i32, i32, i32, i32, i8, i8, ptr, ptr, ptr, ptr, ptr, ptr, i8, i32, i8, i64, ptr, i64, i64, i32, i8, i32, i32, i8, ptr, ptr, ptr }
%struct.H5HF_dtable_t = type { %struct.H5HF_dtable_cparam_t, i64, i32, i32, i32, i32, i32, i32, i32, i64, ptr, ptr, ptr, ptr }
%struct.H5HF_dtable_cparam_t = type { i32, i64, i64, i32, i32 }
%struct.H5O_pline_t = type { %struct.H5O_shared_t, i32, i64, i64, ptr }
%struct.H5O_shared_t = type { i32, ptr, i32, %union.anon }
%union.anon = type { %struct.H5O_mesg_loc_t }
%struct.H5O_mesg_loc_t = type { i32, i64 }
%struct.H5HF_block_iter_t = type { i8, ptr }

@H5HF_init_g = external global i8, align 1
@H5_libterm_g = external global i8, align 1
@.str = private unnamed_addr constant [101 x i8] c"generated/home/dtcxzyw/WorkSpace/Projects/compilers/llvm-opt-benchmark/bench/hdf5/hdf5/src/H5HFhdr.c\00", align 1
@H5E_HEAP_g = external global i64, align 8
@H5E_CANTRELEASE_g = external global i64, align 8
@__func__.H5HF__hdr_dirty = private unnamed_addr constant [16 x i8] c"H5HF__hdr_dirty\00", align 1
@H5E_CANTRESIZE_g = external global i64, align 8
@.str.24 = private unnamed_addr constant [37 x i8] c"unable to resize fractal heap header\00", align 1
@H5E_CANTMARKDIRTY_g = external global i64, align 8
@.str.25 = private unnamed_addr constant [44 x i8] c"unable to mark fractal heap header as dirty\00", align 1
@H5E_CANTDIRTY_g = external global i64, align 8
@.str.27 = private unnamed_addr constant [27 x i8] c"can't mark header as dirty\00", align 1
@.str.29 = private unnamed_addr constant [27 x i8] c"can't reset block iterator\00", align 1
@__func__.H5HF__hdr_empty = private unnamed_addr constant [16 x i8] c"H5HF__hdr_empty\00", align 1

; Function Attrs: nounwind uwtable
define i32 @H5HF__hdr_dirty(ptr noundef %0) #0 {
  %2 = alloca ptr, align 8
  %3 = alloca i32, align 4
  %4 = alloca i8, align 1
  store ptr %0, ptr %2, align 8, !tbaa !8
  call void @llvm.lifetime.start.p0(i64 4, ptr %3) #7
  store i32 0, ptr %3, align 4, !tbaa !38
  call void @llvm.lifetime.start.p0(i64 1, ptr %4) #7
  store i8 0, ptr %4, align 1, !tbaa !10
  %5 = load i8, ptr @H5HF_init_g, align 1, !tbaa !10, !range !12, !noundef !13
  %6 = trunc i8 %5 to i1
  br i1 %6, label %11, label %7

7:                                                ; preds = %1
  %8 = load i8, ptr @H5_libterm_g, align 1, !tbaa !10, !range !12, !noundef !13
  %9 = trunc i8 %8 to i1
  %10 = xor i1 %9, true
  br label %11

11:                                               ; preds = %7, %1
  %12 = phi i1 [ true, %1 ], [ %10, %7 ]
  %13 = xor i1 %12, true
  %14 = xor i1 %13, true
  %15 = zext i1 %14 to i32
  %16 = sext i32 %15 to i64
  %17 = call i64 @llvm.expect.i64(i64 %16, i64 1)
  %18 = icmp ne i64 %17, 0
  br i1 %18, label %19, label %76

19:                                               ; preds = %11
  %20 = load ptr, ptr %2, align 8, !tbaa !8
  %21 = getelementptr inbounds nuw %struct.H5HF_hdr_t, ptr %20, i32 0, i32 2
  %22 = load i32, ptr %21, align 4, !tbaa !65
  %23 = icmp ugt i32 %22, 0
  br i1 %23, label %24, label %51

24:                                               ; preds = %19
  %25 = load ptr, ptr %2, align 8, !tbaa !8
  %26 = load ptr, ptr %2, align 8, !tbaa !8
  %27 = getelementptr inbounds nuw %struct.H5HF_hdr_t, ptr %26, i32 0, i32 26
  %28 = load i64, ptr %27, align 8, !tbaa !66
  %29 = call i32 @H5AC_resize_entry(ptr noundef %25, i64 noundef %28)
  %30 = icmp slt i32 %29, 0
  br i1 %30, label %31, label %50

31:                                               ; preds = %24
  br label %32

32:                                               ; preds = %31
  br label %33

33:                                               ; preds = %32
  br label %34

34:                                               ; preds = %33
  %35 = load i64, ptr @H5E_HEAP_g, align 8, !tbaa !14
  %36 = load i64, ptr @H5E_CANTRESIZE_g, align 8, !tbaa !14
  %37 = call i32 (ptr, ptr, i32, i64, i64, ptr, ...) @H5E_printf_stack(ptr noundef @.str, ptr noundef @__func__.H5HF__hdr_dirty, i32 noundef 661, i64 noundef %35, i64 noundef %36, ptr noundef @.str.24)
  br label %38

38:                                               ; preds = %34
  br label %39

39:                                               ; preds = %38
  store i8 1, ptr %4, align 1, !tbaa !10
  %40 = load i8, ptr %4, align 1, !tbaa !10, !range !12, !noundef !13
  %41 = trunc i8 %40 to i1
  %42 = zext i1 %41 to i8
  store i8 %42, ptr %4, align 1, !tbaa !10
  br label %43

43:                                               ; preds = %39
  br label %44

44:                                               ; preds = %43
  br label %45

45:                                               ; preds = %44
  store i32 -1, ptr %3, align 4, !tbaa !38
  br label %75

46:                                               ; No predecessors!
  br label %47

47:                                               ; preds = %46
  br label %48

48:                                               ; preds = %47
  br label %49

49:                                               ; preds = %48
  br label %50

50:                                               ; preds = %49, %24
  br label %51

51:                                               ; preds = %50, %19
  %52 = load ptr, ptr %2, align 8, !tbaa !8
  %53 = call i32 @H5AC_mark_entry_dirty(ptr noundef %52)
  %54 = icmp slt i32 %53, 0
  br i1 %54, label %55, label %74

55:                                               ; preds = %51
  br label %56

56:                                               ; preds = %55
  br label %57

57:                                               ; preds = %56
  br label %58

58:                                               ; preds = %57
  %59 = load i64, ptr @H5E_HEAP_g, align 8, !tbaa !14
  %60 = load i64, ptr @H5E_CANTMARKDIRTY_g, align 8, !tbaa !14
  %61 = call i32 (ptr, ptr, i32, i64, i64, ptr, ...) @H5E_printf_stack(ptr noundef @.str, ptr noundef @__func__.H5HF__hdr_dirty, i32 noundef 665, i64 noundef %59, i64 noundef %60, ptr noundef @.str.25)
  br label %62

62:                                               ; preds = %58
  br label %63

63:                                               ; preds = %62
  store i8 1, ptr %4, align 1, !tbaa !10
  %64 = load i8, ptr %4, align 1, !tbaa !10, !range !12, !noundef !13
  %65 = trunc i8 %64 to i1
  %66 = zext i1 %65 to i8
  store i8 %66, ptr %4, align 1, !tbaa !10
  br label %67

67:                                               ; preds = %63
  br label %68

68:                                               ; preds = %67
  br label %69

69:                                               ; preds = %68
  store i32 -1, ptr %3, align 4, !tbaa !38
  br label %75

70:                                               ; No predecessors!
  br label %71

71:                                               ; preds = %70
  br label %72

72:                                               ; preds = %71
  br label %73

73:                                               ; preds = %72
  br label %74

74:                                               ; preds = %73, %51
  br label %75

75:                                               ; preds = %74, %69, %45
  br label %76

76:                                               ; preds = %75, %11
  %77 = load i32, ptr %3, align 4, !tbaa !38
  call void @llvm.lifetime.end.p0(i64 1, ptr %4) #7
  call void @llvm.lifetime.end.p0(i64 4, ptr %3) #7
  ret i32 %77
}

; Function Attrs: nounwind uwtable
define i32 @H5HF__hdr_empty(ptr noundef %0) #0 {
  %2 = alloca ptr, align 8
  %3 = alloca i32, align 4
  %4 = alloca i8, align 1
  store ptr %0, ptr %2, align 8, !tbaa !8
  call void @llvm.lifetime.start.p0(i64 4, ptr %3) #7
  store i32 0, ptr %3, align 4, !tbaa !38
  call void @llvm.lifetime.start.p0(i64 1, ptr %4) #7
  store i8 0, ptr %4, align 1, !tbaa !10
  %5 = load i8, ptr @H5HF_init_g, align 1, !tbaa !10, !range !12, !noundef !13
  %6 = trunc i8 %5 to i1
  br i1 %6, label %11, label %7

7:                                                ; preds = %1
  %8 = load i8, ptr @H5_libterm_g, align 1, !tbaa !10, !range !12, !noundef !13
  %9 = trunc i8 %8 to i1
  %10 = xor i1 %9, true
  br label %11

11:                                               ; preds = %7, %1
  %12 = phi i1 [ true, %1 ], [ %10, %7 ]
  %13 = xor i1 %12, true
  %14 = xor i1 %13, true
  %15 = zext i1 %14 to i32
  %16 = sext i32 %15 to i64
  %17 = call i64 @llvm.expect.i64(i64 %16, i64 1)
  %18 = icmp ne i64 %17, 0
  br i1 %18, label %19, label %87

19:                                               ; preds = %11
  %20 = load ptr, ptr %2, align 8, !tbaa !8
  %21 = getelementptr inbounds nuw %struct.H5HF_hdr_t, ptr %20, i32 0, i32 36
  %22 = call zeroext i1 @H5HF__man_iter_ready(ptr noundef %21)
  br i1 %22, label %23, label %48

23:                                               ; preds = %19
  %24 = load ptr, ptr %2, align 8, !tbaa !8
  %25 = getelementptr inbounds nuw %struct.H5HF_hdr_t, ptr %24, i32 0, i32 36
  %26 = call i32 @H5HF__man_iter_reset(ptr noundef %25)
  %27 = icmp slt i32 %26, 0
  br i1 %27, label %28, label %47

28:                                               ; preds = %23
  br label %29

29:                                               ; preds = %28
  br label %30

30:                                               ; preds = %29
  br label %31

31:                                               ; preds = %30
  %32 = load i64, ptr @H5E_HEAP_g, align 8, !tbaa !14
  %33 = load i64, ptr @H5E_CANTRELEASE_g, align 8, !tbaa !14
  %34 = call i32 (ptr, ptr, i32, i64, i64, ptr, ...) @H5E_printf_stack(ptr noundef @.str, ptr noundef @__func__.H5HF__hdr_empty, i32 noundef 1275, i64 noundef %32, i64 noundef %33, ptr noundef @.str.29)
  br label %35

35:                                               ; preds = %31
  br label %36

36:                                               ; preds = %35
  store i8 1, ptr %4, align 1, !tbaa !10
  %37 = load i8, ptr %4, align 1, !tbaa !10, !range !12, !noundef !13
  %38 = trunc i8 %37 to i1
  %39 = zext i1 %38 to i8
  store i8 %39, ptr %4, align 1, !tbaa !10
  br label %40

40:                                               ; preds = %36
  br label %41

41:                                               ; preds = %40
  br label %42

42:                                               ; preds = %41
  store i32 -1, ptr %3, align 4, !tbaa !38
  br label %86

43:                                               ; No predecessors!
  br label %44

44:                                               ; preds = %43
  br label %45

45:                                               ; preds = %44
  br label %46

46:                                               ; preds = %45
  br label %47

47:                                               ; preds = %46, %23
  br label %48

48:                                               ; preds = %47, %19
  %49 = load ptr, ptr %2, align 8, !tbaa !8
  %50 = getelementptr inbounds nuw %struct.H5HF_hdr_t, ptr %49, i32 0, i32 16
  store i64 0, ptr %50, align 8, !tbaa !77
  %51 = load ptr, ptr %2, align 8, !tbaa !8
  %52 = getelementptr inbounds nuw %struct.H5HF_hdr_t, ptr %51, i32 0, i32 17
  store i64 0, ptr %52, align 8, !tbaa !78
  %53 = load ptr, ptr %2, align 8, !tbaa !8
  %54 = getelementptr inbounds nuw %struct.H5HF_hdr_t, ptr %53, i32 0, i32 7
  %55 = getelementptr inbounds nuw %struct.H5HF_dtable_t, ptr %54, i32 0, i32 2
  store i32 0, ptr %55, align 8, !tbaa !82
  %56 = load ptr, ptr %2, align 8, !tbaa !8
  %57 = getelementptr inbounds nuw %struct.H5HF_hdr_t, ptr %56, i32 0, i32 7
  %58 = getelementptr inbounds nuw %struct.H5HF_dtable_t, ptr %57, i32 0, i32 1
  store i64 -1, ptr %58, align 8, !tbaa !60
  %59 = load ptr, ptr %2, align 8, !tbaa !8
  %60 = getelementptr inbounds nuw %struct.H5HF_hdr_t, ptr %59, i32 0, i32 18
  store i64 0, ptr %60, align 8, !tbaa !80
  %61 = load ptr, ptr %2, align 8, !tbaa !8
  %62 = getelementptr inbounds nuw %struct.H5HF_hdr_t, ptr %61, i32 0, i32 8
  store i64 0, ptr %62, align 8, !tbaa !76
  %63 = load ptr, ptr %2, align 8, !tbaa !8
  %64 = call i32 @H5HF__hdr_dirty(ptr noundef %63)
  %65 = icmp slt i32 %64, 0
  br i1 %65, label %66, label %85

66:                                               ; preds = %48
  br label %67

67:                                               ; preds = %66
  br label %68

68:                                               ; preds = %67
  br label %69

69:                                               ; preds = %68
  %70 = load i64, ptr @H5E_HEAP_g, align 8, !tbaa !14
  %71 = load i64, ptr @H5E_CANTDIRTY_g, align 8, !tbaa !14
  %72 = call i32 (ptr, ptr, i32, i64, i64, ptr, ...) @H5E_printf_stack(ptr noundef @.str, ptr noundef @__func__.H5HF__hdr_empty, i32 noundef 1293, i64 noundef %70, i64 noundef %71, ptr noundef @.str.27)
  br label %73

73:                                               ; preds = %69
  br label %74

74:                                               ; preds = %73
  store i8 1, ptr %4, align 1, !tbaa !10
  %75 = load i8, ptr %4, align 1, !tbaa !10, !range !12, !noundef !13
  %76 = trunc i8 %75 to i1
  %77 = zext i1 %76 to i8
  store i8 %77, ptr %4, align 1, !tbaa !10
  br label %78

78:                                               ; preds = %74
  br label %79

79:                                               ; preds = %78
  br label %80

80:                                               ; preds = %79
  store i32 -1, ptr %3, align 4, !tbaa !38
  br label %86

81:                                               ; No predecessors!
  br label %82

82:                                               ; preds = %81
  br label %83

83:                                               ; preds = %82
  br label %84

84:                                               ; preds = %83
  br label %85

85:                                               ; preds = %84, %48
  br label %86

86:                                               ; preds = %85, %80, %42
  br label %87

87:                                               ; preds = %86, %11
  %88 = load i32, ptr %3, align 4, !tbaa !38
  call void @llvm.lifetime.end.p0(i64 1, ptr %4) #7
  call void @llvm.lifetime.end.p0(i64 4, ptr %3) #7
  ret i32 %88
}