; Function Attrs: nounwind uwtable
define range(i32 -1, 1) i32 @H5HF__hdr_empty(ptr noundef %0) local_unnamed_addr #0 {
  %2 = load i8, ptr @H5HF_init_g, align 1, !tbaa !3, !range !7, !noundef !8
  %3 = trunc nuw i8 %2 to i1
  %4 = load i8, ptr @H5_libterm_g, align 1, !range !7
  %5 = trunc nuw i8 %4 to i1
  %6 = xor i1 %5, true
  %7 = select i1 %3, i1 true, i1 %6
  br i1 %7, label %8, label %H5HF__hdr_dirty.exit, !prof !9

8:                                                ; preds = %1
  %9 = getelementptr inbounds nuw i8, ptr %0, i64 648
  %10 = tail call zeroext i1 @H5HF__man_iter_ready(ptr noundef nonnull %9) #7
  br i1 %10, label %11, label %18

11:                                               ; preds = %8
  %12 = tail call i32 @H5HF__man_iter_reset(ptr noundef nonnull %9) #7
  %13 = icmp slt i32 %12, 0
  br i1 %13, label %14, label %18

14:                                               ; preds = %11
  %15 = load i64, ptr @H5E_HEAP_g, align 8, !tbaa !10
  %16 = load i64, ptr @H5E_CANTRELEASE_g, align 8, !tbaa !10
  %17 = tail call i32 (ptr, ptr, i32, i64, i64, ptr, ...) @H5E_printf_stack(ptr noundef nonnull @.str, ptr noundef nonnull @__func__.H5HF__hdr_empty, i32 noundef 1275, i64 noundef %15, i64 noundef %16, ptr noundef nonnull @.str.29) #7
  br label %H5HF__hdr_dirty.exit

18:                                               ; preds = %11, %8
  %19 = getelementptr inbounds nuw i8, ptr %0, i64 504
  %20 = getelementptr inbounds nuw i8, ptr %0, i64 304
  store i32 0, ptr %20, align 8, !tbaa !77
  %21 = getelementptr inbounds nuw i8, ptr %0, i64 296
  tail call void @llvm.memset.p0.i64(ptr noundef nonnull align 8 dereferenceable(16) %19, i8 0, i64 16, i1 false)
  store i64 -1, ptr %21, align 8, !tbaa !56
  %22 = getelementptr inbounds nuw i8, ptr %0, i64 520
  store i64 0, ptr %22, align 8, !tbaa !75
  %23 = getelementptr inbounds nuw i8, ptr %0, i64 376
  store i64 0, ptr %23, align 8, !tbaa !72
  %24 = load i8, ptr @H5HF_init_g, align 1, !tbaa !3, !range !7, !noundef !8
  %25 = trunc nuw i8 %24 to i1
  %26 = load i8, ptr @H5_libterm_g, align 1, !range !7
  %27 = trunc nuw i8 %26 to i1
  %28 = xor i1 %27, true
  %29 = select i1 %25, i1 true, i1 %28
  br i1 %29, label %30, label %H5HF__hdr_dirty.exit, !prof !9

30:                                               ; preds = %18
  %31 = getelementptr inbounds nuw i8, ptr %0, i64 252
  %32 = load i32, ptr %31, align 4, !tbaa !61
  %.not.i = icmp eq i32 %32, 0
  br i1 %.not.i, label %42, label %33

33:                                               ; preds = %30
  %34 = getelementptr inbounds nuw i8, ptr %0, i64 584
  %35 = load i64, ptr %34, align 8, !tbaa !62
  %36 = tail call i32 @H5AC_resize_entry(ptr noundef nonnull %0, i64 noundef %35) #7
  %37 = icmp slt i32 %36, 0
  br i1 %37, label %38, label %42

38:                                               ; preds = %33
  %39 = load i64, ptr @H5E_HEAP_g, align 8, !tbaa !10
  %40 = load i64, ptr @H5E_CANTRESIZE_g, align 8, !tbaa !10
  %41 = tail call i32 (ptr, ptr, i32, i64, i64, ptr, ...) @H5E_printf_stack(ptr noundef nonnull @.str, ptr noundef nonnull @__func__.H5HF__hdr_dirty, i32 noundef 661, i64 noundef %39, i64 noundef %40, ptr noundef nonnull @.str.24) #7
  br label %49

42:                                               ; preds = %33, %30
  %43 = tail call i32 @H5AC_mark_entry_dirty(ptr noundef nonnull %0) #7
  %44 = icmp slt i32 %43, 0
  br i1 %44, label %45, label %H5HF__hdr_dirty.exit

45:                                               ; preds = %42
  %46 = load i64, ptr @H5E_HEAP_g, align 8, !tbaa !10
  %47 = load i64, ptr @H5E_CANTMARKDIRTY_g, align 8, !tbaa !10
  %48 = tail call i32 (ptr, ptr, i32, i64, i64, ptr, ...) @H5E_printf_stack(ptr noundef nonnull @.str, ptr noundef nonnull @__func__.H5HF__hdr_dirty, i32 noundef 665, i64 noundef %46, i64 noundef %47, ptr noundef nonnull @.str.25) #7
  br label %49

49:                                               ; preds = %38, %45
  %50 = load i64, ptr @H5E_HEAP_g, align 8, !tbaa !10
  %51 = load i64, ptr @H5E_CANTDIRTY_g, align 8, !tbaa !10
  %52 = tail call i32 (ptr, ptr, i32, i64, i64, ptr, ...) @H5E_printf_stack(ptr noundef nonnull @.str, ptr noundef nonnull @__func__.H5HF__hdr_empty, i32 noundef 1293, i64 noundef %50, i64 noundef %51, ptr noundef nonnull @.str.27) #7
  br label %H5HF__hdr_dirty.exit

H5HF__hdr_dirty.exit:                             ; preds = %42, %18, %14, %49, %1
  %.0 = phi i32 [ -1, %14 ], [ -1, %49 ], [ 0, %1 ], [ 0, %18 ], [ 0, %42 ]
  ret i32 %.0
}